; Function Attrs: mustprogress uwtable
define i32 @uloc_getScript_77(ptr noundef %0, ptr noundef %1, i32 noundef %2, ptr noundef %3) local_unnamed_addr #1 personality ptr @__gxx_personality_v0 {
  %5 = alloca %"class.icu_77::CheckedArrayByteSink", align 8
  %6 = icmp eq ptr %0, null
  br i1 %6, label %7, label %9

7:                                                ; preds = %4
  %8 = tail call ptr @locale_get_default_77()
  br label %9

9:                                                ; preds = %7, %4
  %.0 = phi ptr [ %8, %7 ], [ %0, %4 ]
  %10 = load i32, ptr %3, align 4, !tbaa !13
  %11 = icmp slt i32 %10, 1
  br i1 %11, label %12, label %"_ZN6icu_7712ByteSinkUtil28viaByteSinkToTerminatedCharsIZ17uloc_getScript_77E3$_0vEEiPciOT_R10UErrorCode.exit"

12:                                               ; preds = %9
  call void @llvm.lifetime.start.p0(i64 32, ptr nonnull %5) #20
  call void @_ZN6icu_7720CheckedArrayByteSinkC1EPci(ptr noundef nonnull align 8 dereferenceable(29) %5, ptr noundef %1, i32 noundef %2)
  %13 = call noundef i64 @strlen(ptr noundef nonnull dereferenceable(1) %.0) #20
  invoke void @_Z21ulocimp_getSubtags_77St17basic_string_viewIcSt11char_traitsIcEEPN6icu_778ByteSinkES5_S5_S5_PPKcR10UErrorCode(i64 %13, ptr nonnull %.0, ptr noundef null, ptr noundef nonnull align 8 dereferenceable(8) %5, ptr noundef null, ptr noundef null, ptr noundef null, ptr noundef nonnull align 4 dereferenceable(4) %3)
          to label %"_ZZ17uloc_getScript_77ENK3$_0clERN6icu_778ByteSinkER10UErrorCode.exit.i" unwind label %16

"_ZZ17uloc_getScript_77ENK3$_0clERN6icu_778ByteSinkER10UErrorCode.exit.i": ; preds = %12
  %14 = load i32, ptr %3, align 4, !tbaa !13
  %15 = icmp slt i32 %14, 1
  br i1 %15, label %18, label %28

16:                                               ; preds = %12
  %17 = landingpad { ptr, i32 }
          cleanup
  br label %29

18:                                               ; preds = %"_ZZ17uloc_getScript_77ENK3$_0clERN6icu_778ByteSinkER10UErrorCode.exit.i"
  %19 = getelementptr inbounds nuw i8, ptr %5, i64 24
  %20 = load i32, ptr %19, align 8, !tbaa !35
  %21 = getelementptr inbounds nuw i8, ptr %5, i64 28
  %22 = load i8, ptr %21, align 4, !tbaa !38
  %.not17.i = icmp eq i8 %22, 0
  br i1 %.not17.i, label %24, label %23

23:                                               ; preds = %18
  store i32 15, ptr %3, align 4, !tbaa !13
  br label %28

24:                                               ; preds = %18
  %25 = invoke i32 @u_terminateChars_77(ptr noundef %1, i32 noundef %2, i32 noundef %20, ptr noundef nonnull align 4 dereferenceable(4) %3)
          to label %28 unwind label %26

26:                                               ; preds = %24
  %27 = landingpad { ptr, i32 }
          cleanup
  br label %29

28:                                               ; preds = %24, %23, %"_ZZ17uloc_getScript_77ENK3$_0clERN6icu_778ByteSinkER10UErrorCode.exit.i"
  %.1.i = phi i32 [ 0, %"_ZZ17uloc_getScript_77ENK3$_0clERN6icu_778ByteSinkER10UErrorCode.exit.i" ], [ %20, %23 ], [ %25, %24 ]
  call void @_ZN6icu_7720CheckedArrayByteSinkD1Ev(ptr noundef nonnull align 8 dereferenceable(29) %5) #20
  call void @llvm.lifetime.end.p0(i64 32, ptr nonnull %5) #20
  br label %"_ZN6icu_7712ByteSinkUtil28viaByteSinkToTerminatedCharsIZ17uloc_getScript_77E3$_0vEEiPciOT_R10UErrorCode.exit"

29:                                               ; preds = %26, %16
  %.pn.i = phi { ptr, i32 } [ %27, %26 ], [ %17, %16 ]
  call void @_ZN6icu_7720CheckedArrayByteSinkD1Ev(ptr noundef nonnull align 8 dereferenceable(29) %5) #20
  call void @llvm.lifetime.end.p0(i64 32, ptr nonnull %5) #20
  resume { ptr, i32 } %.pn.i

"_ZN6icu_7712ByteSinkUtil28viaByteSinkToTerminatedCharsIZ17uloc_getScript_77E3$_0vEEiPciOT_R10UErrorCode.exit": ; preds = %9, %28
  %.0.i = phi i32 [ %.1.i, %28 ], [ 0, %9 ]
  ret i32 %.0.i
}